; Function Attrs: mustprogress uwtable
define hidden void @_ZN4lean15get_num_lit_extERKNS_4exprE(ptr dead_on_unwind noalias writable sret(%"class.lean::optional.80") align 8 initializes((0, 1)) %0, ptr noundef nonnull readonly align 8 captures(none) dereferenceable(8) %1) local_unnamed_addr #0 personality ptr @__gxx_personality_v0 {
  %3 = load ptr, ptr %1, align 8, !tbaa !3
  %4 = ptrtoint ptr %3 to i64
  %5 = and i64 %4, 1
  %.not.i = icmp eq i64 %5, 0
  br i1 %.not.i, label %6, label %_ZN4lean3incEP11lean_object.exit

6:                                                ; preds = %2
  %.val.i.i = load i32, ptr %3, align 4, !tbaa !13
  %7 = icmp sgt i32 %.val.i.i, 0
  br i1 %7, label %8, label %10, !prof !15

8:                                                ; preds = %6
  %9 = add nuw nsw i32 %.val.i.i, 1
  store i32 %9, ptr %3, align 4, !tbaa !13
  br label %_ZN4lean3incEP11lean_object.exit

10:                                               ; preds = %6
  %.not.i.i = icmp eq i32 %.val.i.i, 0
  br i1 %.not.i.i, label %_ZN4lean3incEP11lean_object.exit, label %11

11:                                               ; preds = %10
  tail call void @lean_inc_ref_cold(ptr noundef nonnull %3)
  %.pre = load ptr, ptr %1, align 8, !tbaa !3
  br label %_ZN4lean3incEP11lean_object.exit

_ZN4lean3incEP11lean_object.exit:                 ; preds = %2, %8, %10, %11
  %12 = phi ptr [ %3, %2 ], [ %3, %8 ], [ %3, %10 ], [ %.pre, %11 ]
  %13 = tail call ptr @lean_get_num_lit(ptr noundef %12)
  tail call void @llvm.experimental.noalias.scope.decl(metadata !157)
  %14 = ptrtoint ptr %13 to i64
  %15 = and i64 %14, 1
  %.not.i2 = icmp eq i64 %15, 0
  br i1 %.not.i2, label %17, label %16

16:                                               ; preds = %_ZN4lean3incEP11lean_object.exit
  store i8 0, ptr %0, align 8, !tbaa !160, !alias.scope !157
  br label %_ZN4lean15to_optional_natEP11lean_object.exit

17:                                               ; preds = %_ZN4lean3incEP11lean_object.exit
  %18 = getelementptr inbounds nuw i8, ptr %13, i64 8
  %19 = load ptr, ptr %18, align 8, !tbaa !16, !noalias !157
  %20 = ptrtoint ptr %19 to i64
  %21 = and i64 %20, 1
  %.not.i.i.i.i = icmp eq i64 %21, 0
  br i1 %.not.i.i.i.i, label %22, label %28

22:                                               ; preds = %17
  %.val.i.i.i.i.i = load i32, ptr %19, align 4, !tbaa !13, !noalias !157
  %23 = icmp sgt i32 %.val.i.i.i.i.i, 0
  br i1 %23, label %24, label %26, !prof !15

24:                                               ; preds = %22
  %25 = add nuw nsw i32 %.val.i.i.i.i.i, 1
  store i32 %25, ptr %19, align 4, !tbaa !13, !noalias !157
  br label %28

26:                                               ; preds = %22
  %.not.i.i.i.i.i = icmp eq i32 %.val.i.i.i.i.i, 0
  br i1 %.not.i.i.i.i.i, label %28, label %27

27:                                               ; preds = %26
  tail call void @lean_inc_ref_cold(ptr noundef nonnull %19), !noalias !157
  br label %28

28:                                               ; preds = %27, %26, %24, %17
  store i8 1, ptr %0, align 8, !tbaa !160, !alias.scope !157
  %29 = getelementptr inbounds nuw i8, ptr %0, i64 8
  store ptr %19, ptr %29, align 8, !tbaa !3, !alias.scope !157
  %30 = load i32, ptr %13, align 4, !tbaa !13, !noalias !157
  %31 = icmp sgt i32 %30, 1
  br i1 %31, label %32, label %34, !prof !15

32:                                               ; preds = %28
  %33 = add nsw i32 %30, -1
  store i32 %33, ptr %13, align 4, !tbaa !13, !noalias !157
  br label %_ZN4lean15to_optional_natEP11lean_object.exit

34:                                               ; preds = %28
  %.not.i.i8.i = icmp eq i32 %30, 0
  br i1 %.not.i.i8.i, label %_ZN4lean15to_optional_natEP11lean_object.exit, label %35

35:                                               ; preds = %34
  invoke void @lean_dec_ref_cold(ptr noundef nonnull %13)
          to label %_ZN4lean15to_optional_natEP11lean_object.exit unwind label %36, !noalias !157

36:                                               ; preds = %35
  %37 = landingpad { ptr, i32 }
          cleanup
  tail call void @_ZN4lean8optionalINS_3natEED2Ev(ptr noundef nonnull align 8 dereferenceable(16) %0) #25
  resume { ptr, i32 } %37

_ZN4lean15to_optional_natEP11lean_object.exit:    ; preds = %16, %32, %34, %35
  ret void
}